(lp0
S'pizza'
p1
aS'broccoli'
p2
aS'water_bottle'
p3
aS'trash_can'
p4
aS'pineapple'
p5
aS'pineapple'
p6
aS'coke_can'
p7
aS'pizza'
p8
aS'water_bottle'
p9
aS'chair'
p10
aS'pizza'
p11
aS'chair'
p12
aS'pizza'
p13
aS'pizza'
p14
aS'coke_can'
p15
aS'pineapple'
p16
aS'broccoli'
p17
aS'broccoli'
p18
aS'broccoli'
p19
aS'trash_can'
p20
aS'trash_can'
p21
aS'water_bottle'
p22
aS'pineapple'
p23
aS'broccoli'
p24
aS'water_bottle'
p25
aS'chair'
p26
aS'pineapple'
p27
aS'chair'
p28
aS'trash_can'
p29
aS'pizza'
p30
aS'pizza'
p31
aS'chair'
p32
aS'water_bottle'
p33
aS'water_bottle'
p34
aS'coke_can'
p35
aS'chair'
p36
aS'trash_can'
p37
aS'water_bottle'
p38
aS'broccoli'
p39
aS'coke_can'
p40
aS'trash_can'
p41
aS'pineapple'
p42
aS'coke_can'
p43
aS'broccoli'
p44
aS'broccoli'
p45
aS'pizza'
p46
aS'pizza'
p47
aS'coke_can'
p48
aS'coke_can'
p49
aS'chair'
p50
aS'chair'
p51
aS'coke_can'
p52
aS'pineapple'
p53
aS'trash_can'
p54
aS'pineapple'
p55
aS'broccoli'
p56
aS'water_bottle'
p57
aS'pizza'
p58
aS'trash_can'
p59
aS'water_bottle'
p60
aS'broccoli'
p61
aS'water_bottle'
p62
aS'pizza'
p63
aS'pizza'
p64
aS'trash_can'
p65
aS'coke_can'
p66
aS'pineapple'
p67
aS'chair'
p68
aS'pineapple'
p69
aS'broccoli'
p70
aS'trash_can'
p71
aS'broccoli'
p72
aS'chair'
p73
aS'chair'
p74
aS'coke_can'
p75
aS'pineapple'
p76
aS'coke_can'
p77
aS'water_bottle'
p78
aS'pineapple'
p79
aS'chair'
p80
aS'coke_can'
p81
aS'water_bottle'
p82
aS'trash_can'
p83
aS'trash_can'
p84
a.