(lp0
S'pizza'
p1
aS'coke_can'
p2
aS'pizza'
p3
aS'coke_can'
p4
aS'trash_can'
p5
aS'pizza'
p6
aS'coke_can'
p7
aS'broccoli'
p8
aS'coke_can'
p9
aS'coke_can'
p10
aS'pizza'
p11
aS'water_bottle'
p12
aS'pizza'
p13
aS'pizza'
p14
aS'coke_can'
p15
aS'pizza'
p16
aS'coke_can'
p17
aS'pineapple'
p18
aS'coke_can'
p19
aS'pizza'
p20
aS'coke_can'
p21
aS'chair'
p22
aS'pizza'
p23
aS'coke_can'
p24
aS'coke_can'
p25
aS'coke_can'
p26
aS'pizza'
p27
aS'pizza'
p28
aS'pizza'
p29
a.